target datalayout = "e-m:e-p270:32:32-p271:32:32-p272:64:64-i64:64-i128:128-f80:128-n8:16:32:64-S128"
target triple = "x86_64-pc-linux-gnu"

%struct.string_list_item = type { ptr, ptr }
%struct.push_info = type { ptr, i32, i32 }

; Function Attrs: nounwind uwtable
define internal i32 @cmp_string_with_push(ptr noundef %0, ptr noundef %1) #0 {
  %3 = alloca ptr, align 8
  %4 = alloca ptr, align 8
  %5 = alloca ptr, align 8
  %6 = alloca ptr, align 8
  %7 = alloca ptr, align 8
  %8 = alloca ptr, align 8
  %9 = alloca i32, align 4
  store ptr %0, ptr %3, align 8, !tbaa !15
  store ptr %1, ptr %4, align 8, !tbaa !15
  call void @llvm.lifetime.start.p0(i64 8, ptr %5) #11
  %10 = load ptr, ptr %3, align 8, !tbaa !15
  store ptr %10, ptr %5, align 8, !tbaa !62
  call void @llvm.lifetime.start.p0(i64 8, ptr %6) #11
  %11 = load ptr, ptr %4, align 8, !tbaa !15
  store ptr %11, ptr %6, align 8, !tbaa !62
  call void @llvm.lifetime.start.p0(i64 8, ptr %7) #11
  %12 = load ptr, ptr %5, align 8, !tbaa !62
  %13 = getelementptr inbounds nuw %struct.string_list_item, ptr %12, i32 0, i32 1
  %14 = load ptr, ptr %13, align 8, !tbaa !63
  store ptr %14, ptr %7, align 8, !tbaa !191
  call void @llvm.lifetime.start.p0(i64 8, ptr %8) #11
  %15 = load ptr, ptr %6, align 8, !tbaa !62
  %16 = getelementptr inbounds nuw %struct.string_list_item, ptr %15, i32 0, i32 1
  %17 = load ptr, ptr %16, align 8, !tbaa !63
  store ptr %17, ptr %8, align 8, !tbaa !191
  call void @llvm.lifetime.start.p0(i64 4, ptr %9) #11
  %18 = load ptr, ptr %5, align 8, !tbaa !62
  %19 = getelementptr inbounds nuw %struct.string_list_item, ptr %18, i32 0, i32 0
  %20 = load ptr, ptr %19, align 8, !tbaa !38
  %21 = load ptr, ptr %6, align 8, !tbaa !62
  %22 = getelementptr inbounds nuw %struct.string_list_item, ptr %21, i32 0, i32 0
  %23 = load ptr, ptr %22, align 8, !tbaa !38
  %24 = call i32 @strcmp(ptr noundef %20, ptr noundef %23) #14
  store i32 %24, ptr %9, align 4, !tbaa !4
  %25 = load i32, ptr %9, align 4, !tbaa !4
  %26 = icmp ne i32 %25, 0
  br i1 %26, label %27, label %29

27:                                               ; preds = %2
  %28 = load i32, ptr %9, align 4, !tbaa !4
  br label %37

29:                                               ; preds = %2
  %30 = load ptr, ptr %7, align 8, !tbaa !191
  %31 = getelementptr inbounds nuw %struct.push_info, ptr %30, i32 0, i32 0
  %32 = load ptr, ptr %31, align 8, !tbaa !195
  %33 = load ptr, ptr %8, align 8, !tbaa !191
  %34 = getelementptr inbounds nuw %struct.push_info, ptr %33, i32 0, i32 0
  %35 = load ptr, ptr %34, align 8, !tbaa !195
  %36 = call i32 @strcmp(ptr noundef %32, ptr noundef %35) #14
  br label %37

37:                                               ; preds = %29, %27
  %38 = phi i32 [ %28, %27 ], [ %36, %29 ]
  call void @llvm.lifetime.end.p0(i64 4, ptr %9) #11
  call void @llvm.lifetime.end.p0(i64 8, ptr %8) #11
  call void @llvm.lifetime.end.p0(i64 8, ptr %7) #11
  call void @llvm.lifetime.end.p0(i64 8, ptr %6) #11
  call void @llvm.lifetime.end.p0(i64 8, ptr %5) #11
  ret i32 %38
}